target datalayout = "e-m:e-p270:32:32-p271:32:32-p272:64:64-i64:64-i128:128-f80:128-n8:16:32:64-S128"
target triple = "x86_64-pc-linux-gnu"

%struct.decNumber = type { i32, i32, i8, [1 x i8] }

@_ZL9DECPOWERS = internal constant [10 x i32] [i32 1, i32 10, i32 100, i32 1000, i32 10000, i32 100000, i32 1000000, i32 10000000, i32 100000000, i32 1000000000], align 16
@_ZL8d2utable = internal constant [50 x i8] c"\00\01\02\03\04\05\06\07\08\09\0A\0B\0C\0D\0E\0F\10\11\12\13\14\15\16\17\18\19\1A\1B\1C\1D\1E\1F !\22#$%&'()*+,-./01", align 16

; Function Attrs: mustprogress nounwind uwtable
define internal noundef i32 @_ZL12decGetDigitsPhi(ptr noundef %0, i32 noundef %1) #2 {
  %3 = alloca ptr, align 8
  %4 = alloca i32, align 4
  %5 = alloca ptr, align 8
  %6 = alloca i32, align 4
  store ptr %0, ptr %3, align 8, !tbaa !11
  store i32 %1, ptr %4, align 4, !tbaa !7
  call void @llvm.lifetime.start.p0(i64 8, ptr %5) #8
  %7 = load ptr, ptr %3, align 8, !tbaa !11
  %8 = load i32, ptr %4, align 4, !tbaa !7
  %9 = sub nsw i32 %8, 1
  %10 = sext i32 %9 to i64
  %11 = getelementptr inbounds i8, ptr %7, i64 %10
  store ptr %11, ptr %5, align 8, !tbaa !11
  call void @llvm.lifetime.start.p0(i64 4, ptr %6) #8
  %12 = load i32, ptr %4, align 4, !tbaa !7
  %13 = sub nsw i32 %12, 1
  %14 = mul nsw i32 %13, 1
  %15 = add nsw i32 %14, 1
  store i32 %15, ptr %6, align 4, !tbaa !7
  br label %16

16:                                               ; preds = %33, %2
  %17 = load ptr, ptr %5, align 8, !tbaa !11
  %18 = load ptr, ptr %3, align 8, !tbaa !11
  %19 = icmp uge ptr %17, %18
  br i1 %19, label %20, label %36

20:                                               ; preds = %16
  %21 = load ptr, ptr %5, align 8, !tbaa !11
  %22 = load i8, ptr %21, align 1, !tbaa !13
  %23 = zext i8 %22 to i32
  %24 = icmp eq i32 %23, 0
  br i1 %24, label %25, label %32

25:                                               ; preds = %20
  %26 = load i32, ptr %6, align 4, !tbaa !7
  %27 = icmp eq i32 %26, 1
  br i1 %27, label %28, label %29

28:                                               ; preds = %25
  br label %36

29:                                               ; preds = %25
  %30 = load i32, ptr %6, align 4, !tbaa !7
  %31 = sub nsw i32 %30, 1
  store i32 %31, ptr %6, align 4, !tbaa !7
  br label %33

32:                                               ; preds = %20
  br label %36

33:                                               ; preds = %29
  %34 = load ptr, ptr %5, align 8, !tbaa !11
  %35 = getelementptr inbounds i8, ptr %34, i32 -1
  store ptr %35, ptr %5, align 8, !tbaa !11
  br label %16, !llvm.loop !18

36:                                               ; preds = %32, %28, %16
  %37 = load i32, ptr %6, align 4, !tbaa !7
  call void @llvm.lifetime.end.p0(i64 4, ptr %6) #8
  call void @llvm.lifetime.end.p0(i64 8, ptr %5) #8
  ret i32 %37
}

; Function Attrs: mustprogress uwtable
define internal noundef ptr @_ZL8decDecapP9decNumberi(ptr noundef %0, i32 noundef %1) #0 {
  %3 = alloca ptr, align 8
  %4 = alloca ptr, align 8
  %5 = alloca i32, align 4
  %6 = alloca ptr, align 8
  %7 = alloca i32, align 4
  %8 = alloca i32, align 4
  store ptr %0, ptr %4, align 8, !tbaa !3
  store i32 %1, ptr %5, align 4, !tbaa !7
  call void @llvm.lifetime.start.p0(i64 8, ptr %6) #8
  call void @llvm.lifetime.start.p0(i64 4, ptr %7) #8
  %9 = load i32, ptr %5, align 4, !tbaa !7
  %10 = load ptr, ptr %4, align 8, !tbaa !3
  %11 = getelementptr inbounds nuw %struct.decNumber, ptr %10, i32 0, i32 0
  %12 = load i32, ptr %11, align 4, !tbaa !16
  %13 = icmp sge i32 %9, %12
  br i1 %13, label %14, label %21

14:                                               ; preds = %2
  %15 = load ptr, ptr %4, align 8, !tbaa !3
  %16 = getelementptr inbounds nuw %struct.decNumber, ptr %15, i32 0, i32 3
  %17 = getelementptr inbounds [1 x i8], ptr %16, i64 0, i64 0
  store i8 0, ptr %17, align 1, !tbaa !13
  %18 = load ptr, ptr %4, align 8, !tbaa !3
  %19 = getelementptr inbounds nuw %struct.decNumber, ptr %18, i32 0, i32 0
  store i32 1, ptr %19, align 4, !tbaa !16
  %20 = load ptr, ptr %4, align 8, !tbaa !3
  store ptr %20, ptr %3, align 8
  store i32 1, ptr %8, align 4
  br label %119

21:                                               ; preds = %2
  %22 = load ptr, ptr %4, align 8, !tbaa !3
  %23 = getelementptr inbounds nuw %struct.decNumber, ptr %22, i32 0, i32 3
  %24 = getelementptr inbounds [1 x i8], ptr %23, i64 0, i64 0
  %25 = load ptr, ptr %4, align 8, !tbaa !3
  %26 = getelementptr inbounds nuw %struct.decNumber, ptr %25, i32 0, i32 0
  %27 = load i32, ptr %26, align 4, !tbaa !16
  %28 = load i32, ptr %5, align 4, !tbaa !7
  %29 = sub nsw i32 %27, %28
  %30 = icmp sle i32 %29, 49
  br i1 %30, label %31, label %41

31:                                               ; preds = %21
  %32 = load ptr, ptr %4, align 8, !tbaa !3
  %33 = getelementptr inbounds nuw %struct.decNumber, ptr %32, i32 0, i32 0
  %34 = load i32, ptr %33, align 4, !tbaa !16
  %35 = load i32, ptr %5, align 4, !tbaa !7
  %36 = sub nsw i32 %34, %35
  %37 = sext i32 %36 to i64
  %38 = getelementptr inbounds [50 x i8], ptr @_ZL8d2utable, i64 0, i64 %37
  %39 = load i8, ptr %38, align 1, !tbaa !13
  %40 = zext i8 %39 to i32
  br label %50

41:                                               ; preds = %21
  %42 = load ptr, ptr %4, align 8, !tbaa !3
  %43 = getelementptr inbounds nuw %struct.decNumber, ptr %42, i32 0, i32 0
  %44 = load i32, ptr %43, align 4, !tbaa !16
  %45 = load i32, ptr %5, align 4, !tbaa !7
  %46 = sub nsw i32 %44, %45
  %47 = add nsw i32 %46, 1
  %48 = sub nsw i32 %47, 1
  %49 = sdiv i32 %48, 1
  br label %50

50:                                               ; preds = %41, %31
  %51 = phi i32 [ %40, %31 ], [ %49, %41 ]
  %52 = sext i32 %51 to i64
  %53 = getelementptr inbounds i8, ptr %24, i64 %52
  %54 = getelementptr inbounds i8, ptr %53, i64 -1
  store ptr %54, ptr %6, align 8, !tbaa !11
  %55 = load ptr, ptr %4, align 8, !tbaa !3
  %56 = getelementptr inbounds nuw %struct.decNumber, ptr %55, i32 0, i32 0
  %57 = load i32, ptr %56, align 4, !tbaa !16
  %58 = load i32, ptr %5, align 4, !tbaa !7
  %59 = sub nsw i32 %57, %58
  %60 = load ptr, ptr %4, align 8, !tbaa !3
  %61 = getelementptr inbounds nuw %struct.decNumber, ptr %60, i32 0, i32 0
  %62 = load i32, ptr %61, align 4, !tbaa !16
  %63 = load i32, ptr %5, align 4, !tbaa !7
  %64 = sub nsw i32 %62, %63
  %65 = icmp sle i32 %64, 49
  br i1 %65, label %66, label %76

66:                                               ; preds = %50
  %67 = load ptr, ptr %4, align 8, !tbaa !3
  %68 = getelementptr inbounds nuw %struct.decNumber, ptr %67, i32 0, i32 0
  %69 = load i32, ptr %68, align 4, !tbaa !16
  %70 = load i32, ptr %5, align 4, !tbaa !7
  %71 = sub nsw i32 %69, %70
  %72 = sext i32 %71 to i64
  %73 = getelementptr inbounds [50 x i8], ptr @_ZL8d2utable, i64 0, i64 %72
  %74 = load i8, ptr %73, align 1, !tbaa !13
  %75 = zext i8 %74 to i32
  br label %85

76:                                               ; preds = %50
  %77 = load ptr, ptr %4, align 8, !tbaa !3
  %78 = getelementptr inbounds nuw %struct.decNumber, ptr %77, i32 0, i32 0
  %79 = load i32, ptr %78, align 4, !tbaa !16
  %80 = load i32, ptr %5, align 4, !tbaa !7
  %81 = sub nsw i32 %79, %80
  %82 = add nsw i32 %81, 1
  %83 = sub nsw i32 %82, 1
  %84 = sdiv i32 %83, 1
  br label %85

85:                                               ; preds = %76, %66
  %86 = phi i32 [ %75, %66 ], [ %84, %76 ]
  %87 = sub nsw i32 %86, 1
  %88 = mul nsw i32 %87, 1
  %89 = sub nsw i32 %59, %88
  store i32 %89, ptr %7, align 4, !tbaa !7
  %90 = load i32, ptr %7, align 4, !tbaa !7
  %91 = icmp ne i32 %90, 1
  br i1 %91, label %92, label %102

92:                                               ; preds = %85
  %93 = load i32, ptr %7, align 4, !tbaa !7
  %94 = sext i32 %93 to i64
  %95 = getelementptr inbounds [10 x i32], ptr @_ZL9DECPOWERS, i64 0, i64 %94
  %96 = load i32, ptr %95, align 4, !tbaa !7
  %97 = load ptr, ptr %6, align 8, !tbaa !11
  %98 = load i8, ptr %97, align 1, !tbaa !13
  %99 = zext i8 %98 to i32
  %100 = urem i32 %99, %96
  %101 = trunc i32 %100 to i8
  store i8 %101, ptr %97, align 1, !tbaa !13
  br label %102

102:                                              ; preds = %92, %85
  %103 = load ptr, ptr %4, align 8, !tbaa !3
  %104 = getelementptr inbounds nuw %struct.decNumber, ptr %103, i32 0, i32 3
  %105 = getelementptr inbounds [1 x i8], ptr %104, i64 0, i64 0
  %106 = load ptr, ptr %6, align 8, !tbaa !11
  %107 = load ptr, ptr %4, align 8, !tbaa !3
  %108 = getelementptr inbounds nuw %struct.decNumber, ptr %107, i32 0, i32 3
  %109 = getelementptr inbounds [1 x i8], ptr %108, i64 0, i64 0
  %110 = ptrtoint ptr %106 to i64
  %111 = ptrtoint ptr %109 to i64
  %112 = sub i64 %110, %111
  %113 = add nsw i64 %112, 1
  %114 = trunc i64 %113 to i32
  %115 = call noundef i32 @_ZL12decGetDigitsPhi(ptr noundef %105, i32 noundef %114)
  %116 = load ptr, ptr %4, align 8, !tbaa !3
  %117 = getelementptr inbounds nuw %struct.decNumber, ptr %116, i32 0, i32 0
  store i32 %115, ptr %117, align 4, !tbaa !16
  %118 = load ptr, ptr %4, align 8, !tbaa !3
  store ptr %118, ptr %3, align 8
  store i32 1, ptr %8, align 4
  br label %119

119:                                              ; preds = %102, %14
  call void @llvm.lifetime.end.p0(i64 4, ptr %7) #8
  call void @llvm.lifetime.end.p0(i64 8, ptr %6) #8
  %120 = load ptr, ptr %3, align 8
  ret ptr %120
}