; Function Attrs: mustprogress nofree norecurse nosync nounwind memory(argmem: readwrite) uwtable
define internal fastcc noundef ptr @_ZL8decDecapP9decNumberi(ptr noundef returned %0, i32 noundef %1) unnamed_addr #0 {
  %3 = load i32, ptr %0, align 4, !tbaa !9
  %.not = icmp slt i32 %1, %3
  %4 = getelementptr inbounds nuw i8, ptr %0, i64 9
  br i1 %.not, label %6, label %5

5:                                                ; preds = %2
  store i8 0, ptr %4, align 1, !tbaa !10
  br label %_ZL12decGetDigitsPhi.exit

6:                                                ; preds = %2
  %7 = sub nsw i32 %3, %1
  %8 = icmp slt i32 %7, 50
  br i1 %8, label %11, label %9

9:                                                ; preds = %6
  %10 = zext nneg i32 %7 to i64
  br label %17

11:                                               ; preds = %6
  %12 = sext i32 %7 to i64
  %13 = getelementptr inbounds [50 x i8], ptr @_ZL8d2utable, i64 0, i64 %12
  %14 = load i8, ptr %13, align 1, !tbaa !10
  %15 = zext i8 %14 to i64
  %16 = zext i8 %14 to i32
  br label %17

17:                                               ; preds = %9, %11
  %.pn34 = phi i64 [ %15, %11 ], [ %10, %9 ]
  %18 = phi i32 [ %16, %11 ], [ %7, %9 ]
  %.pn = getelementptr inbounds nuw i8, ptr %4, i64 %.pn34
  %19 = getelementptr inbounds i8, ptr %.pn, i64 -1
  %.neg35 = add i32 %7, 1
  %20 = sub i32 %.neg35, %18
  %.not33 = icmp eq i32 %20, 1
  br i1 %.not33, label %29, label %21

21:                                               ; preds = %17
  %22 = sext i32 %20 to i64
  %23 = getelementptr inbounds [10 x i32], ptr @_ZL9DECPOWERS, i64 0, i64 %22
  %24 = load i32, ptr %23, align 4, !tbaa !14
  %25 = load i8, ptr %19, align 1, !tbaa !10
  %26 = zext i8 %25 to i32
  %27 = urem i32 %26, %24
  %28 = trunc nuw i32 %27 to i8
  store i8 %28, ptr %19, align 1, !tbaa !10
  br label %29

29:                                               ; preds = %21, %17
  %30 = ptrtoint ptr %19 to i64
  %31 = ptrtoint ptr %4 to i64
  %32 = sub i64 %30, %31
  %33 = trunc i64 %32 to i32
  %34 = add i32 %33, 1
  %35 = sext i32 %34 to i64
  %36 = getelementptr i8, ptr %4, i64 %35
  %.01011.i = getelementptr i8, ptr %36, i64 -1
  %.not12.i = icmp ult ptr %.01011.i, %4
  br i1 %.not12.i, label %_ZL12decGetDigitsPhi.exit, label %.lr.ph.i

.lr.ph.i:                                         ; preds = %29, %40
  %.01014.i = phi ptr [ %.010.i, %40 ], [ %.01011.i, %29 ]
  %.013.i = phi i32 [ %41, %40 ], [ %34, %29 ]
  %37 = load i8, ptr %.01014.i, align 1, !tbaa !10
  %38 = icmp ne i8 %37, 0
  %39 = icmp eq i32 %.013.i, 1
  %or.cond.i = select i1 %38, i1 true, i1 %39
  br i1 %or.cond.i, label %_ZL12decGetDigitsPhi.exit, label %40

40:                                               ; preds = %.lr.ph.i
  %41 = add nsw i32 %.013.i, -1
  %.010.i = getelementptr i8, ptr %.01014.i, i64 -1
  %.not.i = icmp ult ptr %.010.i, %4
  br i1 %.not.i, label %_ZL12decGetDigitsPhi.exit, label %.lr.ph.i, !llvm.loop !13

_ZL12decGetDigitsPhi.exit:                        ; preds = %40, %.lr.ph.i, %29, %5
  %storemerge = phi i32 [ 1, %5 ], [ %34, %29 ], [ %41, %40 ], [ %.013.i, %.lr.ph.i ]
  store i32 %storemerge, ptr %0, align 4, !tbaa !9
  ret ptr %0
}